liblog4cplus-1.2.so.5:_ZN9log4cplus10TTCCLayout15formatAndAppendERSoRKNS_3spi20InternalLoggingEventE
liblog4cplus-1.2.so.5:_ZN9log4cplus10TTCCLayout17setThreadPrintingEb
liblog4cplus-1.2.so.5:_ZN9log4cplus10TTCCLayout18setContextPrintingEb
liblog4cplus-1.2.so.5:_ZN9log4cplus10TTCCLayout20setCategoryPrefixingEb
liblog4cplus-1.2.so.5:_ZN9log4cplus10TTCCLayoutC1ERKNS_7helpers10PropertiesE
liblog4cplus-1.2.so.5:_ZN9log4cplus10TTCCLayoutC1Ebbbb
liblog4cplus-1.2.so.5:_ZN9log4cplus10TTCCLayoutC2ERKNS_7helpers10PropertiesE
liblog4cplus-1.2.so.5:_ZN9log4cplus10TTCCLayoutC2Ebbbb
liblog4cplus-1.2.so.5:_ZN9log4cplus10TTCCLayoutD0Ev
liblog4cplus-1.2.so.5:_ZN9log4cplus10TTCCLayoutD1Ev
liblog4cplus-1.2.so.5:_ZN9log4cplus10TTCCLayoutD2Ev
liblog4cplus-1.2.so.5:_ZN9log4cplus10initializeEv
liblog4cplus-1.2.so.5:_ZN9log4cplus12ErrorHandlerC1Ev
liblog4cplus-1.2.so.5:_ZN9log4cplus12ErrorHandlerC2Ev
liblog4cplus-1.2.so.5:_ZN9log4cplus12ErrorHandlerD0Ev
liblog4cplus-1.2.so.5:_ZN9log4cplus12ErrorHandlerD1Ev
liblog4cplus-1.2.so.5:_ZN9log4cplus12ErrorHandlerD2Ev
liblog4cplus-1.2.so.5:_ZN9log4cplus12FileAppender4initEv
liblog4cplus-1.2.so.5:_ZN9log4cplus12FileAppenderC1ERKNS_7helpers10PropertiesESt13_Ios_Openmode
liblog4cplus-1.2.so.5:_ZN9log4cplus12FileAppenderC1ERKNSt7__cxx1112basic_stringIcSt11char_traitsIcESaIcEEESt13_Ios_Openmodebb
liblog4cplus-1.2.so.5:_ZN9log4cplus12FileAppenderC2ERKNS_7helpers10PropertiesESt13_Ios_Openmode
liblog4cplus-1.2.so.5:_ZN9log4cplus12FileAppenderC2ERKNSt7__cxx1112basic_stringIcSt11char_traitsIcESaIcEEESt13_Ios_Openmodebb
liblog4cplus-1.2.so.5:_ZN9log4cplus12FileAppenderD0Ev
liblog4cplus-1.2.so.5:_ZN9log4cplus12FileAppenderD1Ev
liblog4cplus-1.2.so.5:_ZN9log4cplus12FileAppenderD2Ev
liblog4cplus-1.2.so.5:_ZN9log4cplus12NullAppender5closeEv
liblog4cplus-1.2.so.5:_ZN9log4cplus12NullAppender6appendERKNS_3spi20InternalLoggingEventE
liblog4cplus-1.2.so.5:_ZN9log4cplus12NullAppenderC1ERKNS_7helpers10PropertiesE
liblog4cplus-1.2.so.5:_ZN9log4cplus12NullAppenderC1Ev
liblog4cplus-1.2.so.5:_ZN9log4cplus12NullAppenderC2ERKNS_7helpers10PropertiesE
liblog4cplus-1.2.so.5:_ZN9log4cplus12NullAppenderC2Ev
liblog4cplus-1.2.so.5:_ZN9log4cplus12NullAppenderD0Ev
liblog4cplus-1.2.so.5:_ZN9log4cplus12NullAppenderD1Ev
liblog4cplus-1.2.so.5:_ZN9log4cplus12NullAppenderD2Ev
liblog4cplus-1.2.so.5:_ZN9log4cplus12SimpleLayout15formatAndAppendERSoRKNS_3spi20InternalLoggingEventE
liblog4cplus-1.2.so.5:_ZN9log4cplus12SimpleLayoutC1ERKNS_7helpers10PropertiesE
liblog4cplus-1.2.so.5:_ZN9log4cplus12SimpleLayoutC1Ev
liblog4cplus-1.2.so.5:_ZN9log4cplus12SimpleLayoutC2ERKNS_7helpers10PropertiesE
liblog4cplus-1.2.so.5:_ZN9log4cplus12SimpleLayoutC2Ev
liblog4cplus-1.2.so.5:_ZN9log4cplus12SimpleLayoutD0Ev
liblog4cplus-1.2.so.5:_ZN9log4cplus12SimpleLayoutD1Ev
liblog4cplus-1.2.so.5:_ZN9log4cplus12SimpleLayoutD2Ev
liblog4cplus-1.2.so.5:_ZN9log4cplus13AsyncAppender17init_queue_threadEj
liblog4cplus-1.2.so.5:_ZN9log4cplus13AsyncAppender5closeEv
liblog4cplus-1.2.so.5:_ZN9log4cplus13AsyncAppender6appendERKNS_3spi20InternalLoggingEventE
liblog4cplus-1.2.so.5:_ZN9log4cplus13AsyncAppenderC1ERKNS_7helpers10PropertiesE
liblog4cplus-1.2.so.5:_ZN9log4cplus13AsyncAppenderC1ERKNS_7helpers15SharedObjectPtrINS_8AppenderEEEj
liblog4cplus-1.2.so.5:_ZN9log4cplus13AsyncAppenderC2ERKNS_7helpers10PropertiesE
liblog4cplus-1.2.so.5:_ZN9log4cplus13AsyncAppenderC2ERKNS_7helpers15SharedObjectPtrINS_8AppenderEEEj
liblog4cplus-1.2.so.5:_ZN9log4cplus13AsyncAppenderD0Ev
liblog4cplus-1.2.so.5:_ZN9log4cplus13AsyncAppenderD1Ev
liblog4cplus-1.2.so.5:_ZN9log4cplus13AsyncAppenderD2Ev
liblog4cplus-1.2.so.5:_ZN9log4cplus13PatternLayout15formatAndAppendERSoRKNS_3spi20InternalLoggingEventE
liblog4cplus-1.2.so.5:_ZN9log4cplus13PatternLayout4initERKNSt7__cxx1112basic_stringIcSt11char_traitsIcESaIcEEEj
liblog4cplus-1.2.so.5:_ZN9log4cplus13PatternLayoutC1ERKNS_7helpers10PropertiesE
liblog4cplus-1.2.so.5:_ZN9log4cplus13PatternLayoutC1ERKNSt7__cxx1112basic_stringIcSt11char_traitsIcESaIcEEE
liblog4cplus-1.2.so.5:_ZN9log4cplus13PatternLayoutC2ERKNS_7helpers10PropertiesE
liblog4cplus-1.2.so.5:_ZN9log4cplus13PatternLayoutC2ERKNSt7__cxx1112basic_stringIcSt11char_traitsIcESaIcEEE
liblog4cplus-1.2.so.5:_ZN9log4cplus13PatternLayoutD0Ev
liblog4cplus-1.2.so.5:_ZN9log4cplus13PatternLayoutD1Ev
liblog4cplus-1.2.so.5:_ZN9log4cplus13PatternLayoutD2Ev
liblog4cplus-1.2.so.5:_ZN9log4cplus13threadCleanupEv
liblog4cplus-1.2.so.5:_ZN9log4cplus14SocketAppender10ctcConnectEv
liblog4cplus-1.2.so.5:_ZN9log4cplus14SocketAppender10openSocketEv
liblog4cplus-1.2.so.5:_ZN9log4cplus14SocketAppender12ctcGetSocketEv
liblog4cplus-1.2.so.5:_ZN9log4cplus14SocketAppender13initConnectorEv
liblog4cplus-1.2.so.5:_ZN9log4cplus14SocketAppender15ctcSetConnectedEv
liblog4cplus-1.2.so.5:_ZN9log4cplus14SocketAppender5closeEv
liblog4cplus-1.2.so.5:_ZN9log4cplus14SocketAppender6appendERKNS_3spi20InternalLoggingEventE
liblog4cplus-1.2.so.5:_ZN9log4cplus14SocketAppenderC1ERKNS_7helpers10PropertiesE
liblog4cplus-1.2.so.5:_ZN9log4cplus14SocketAppenderC1ERKNSt7__cxx1112basic_stringIcSt11char_traitsIcESaIcEEEtS8_
liblog4cplus-1.2.so.5:_ZN9log4cplus14SocketAppenderC2ERKNS_7helpers10PropertiesE
liblog4cplus-1.2.so.5:_ZN9log4cplus14SocketAppenderC2ERKNSt7__cxx1112basic_stringIcSt11char_traitsIcESaIcEEEtS8_
liblog4cplus-1.2.so.5:_ZN9log4cplus14SocketAppenderD0Ev
liblog4cplus-1.2.so.5:_ZN9log4cplus14SocketAppenderD1Ev
liblog4cplus-1.2.so.5:_ZN9log4cplus14SocketAppenderD2Ev
liblog4cplus-1.2.so.5:_ZN9log4cplus14SysLogAppender10ctcConnectEv
liblog4cplus-1.2.so.5:_ZN9log4cplus14SysLogAppender10openSocketEv
liblog4cplus-1.2.so.5:_ZN9log4cplus14SysLogAppender11appendLocalERKNS_3spi20InternalLoggingEventE
liblog4cplus-1.2.so.5:_ZN9log4cplus14SysLogAppender12appendRemoteERKNS_3spi20InternalLoggingEventE
liblog4cplus-1.2.so.5:_ZN9log4cplus14SysLogAppender12ctcGetSocketEv
liblog4cplus-1.2.so.5:_ZN9log4cplus14SysLogAppender13initConnectorEv
liblog4cplus-1.2.so.5:_ZN9log4cplus14SysLogAppender15ctcSetConnectedEv
liblog4cplus-1.2.so.5:_ZN9log4cplus14SysLogAppender5closeEv
liblog4cplus-1.2.so.5:_ZN9log4cplus14SysLogAppender6appendERKNS_3spi20InternalLoggingEventE
liblog4cplus-1.2.so.5:_ZN9log4cplus14SysLogAppenderC1ERKNS_7helpers10PropertiesE
liblog4cplus-1.2.so.5:_ZN9log4cplus14SysLogAppenderC1ERKNSt7__cxx1112basic_stringIcSt11char_traitsIcESaIcEEE
liblog4cplus-1.2.so.5:_ZN9log4cplus14SysLogAppenderC1ERKNSt7__cxx1112basic_stringIcSt11char_traitsIcESaIcEEES8_iS8_NS0_16RemoteSyslogTypeE
liblog4cplus-1.2.so.5:_ZN9log4cplus14SysLogAppenderC2ERKNS_7helpers10PropertiesE
liblog4cplus-1.2.so.5:_ZN9log4cplus14SysLogAppenderC2ERKNSt7__cxx1112basic_stringIcSt11char_traitsIcESaIcEEE
liblog4cplus-1.2.so.5:_ZN9log4cplus14SysLogAppenderC2ERKNSt7__cxx1112basic_stringIcSt11char_traitsIcESaIcEEES8_iS8_NS0_16RemoteSyslogTypeE
liblog4cplus-1.2.so.5:_ZN9log4cplus14SysLogAppenderD0Ev
liblog4cplus-1.2.so.5:_ZN9log4cplus14SysLogAppenderD1Ev
liblog4cplus-1.2.so.5:_ZN9log4cplus14SysLogAppenderD2Ev
liblog4cplus-1.2.so.5:_ZN9log4cplus15ConsoleAppender14getOutputMutexEv
liblog4cplus-1.2.so.5:_ZN9log4cplus15ConsoleAppender5closeEv
liblog4cplus-1.2.so.5:_ZN9log4cplus15ConsoleAppender6appendERKNS_3spi20InternalLoggingEventE
liblog4cplus-1.2.so.5:_ZN9log4cplus15ConsoleAppenderC1ERKNS_7helpers10PropertiesE
liblog4cplus-1.2.so.5:_ZN9log4cplus15ConsoleAppenderC1Ebb
liblog4cplus-1.2.so.5:_ZN9log4cplus15ConsoleAppenderC2ERKNS_7helpers10PropertiesE
liblog4cplus-1.2.so.5:_ZN9log4cplus15ConsoleAppenderC2Ebb
liblog4cplus-1.2.so.5:_ZN9log4cplus15ConsoleAppenderD0Ev
liblog4cplus-1.2.so.5:_ZN9log4cplus15ConsoleAppenderD1Ev
liblog4cplus-1.2.so.5:_ZN9log4cplus15ConsoleAppenderD2Ev
liblog4cplus-1.2.so.5:_ZN9log4cplus15HierarchyLocker11addAppenderERNS_6LoggerERNS_7helpers15SharedObjectPtrINS_8AppenderEEE
liblog4cplus-1.2.so.5:_ZN9log4cplus15HierarchyLocker11getInstanceERKNSt7__cxx1112basic_stringIcSt11char_traitsIcESaIcEEE
liblog4cplus-1.2.so.5:_ZN9log4cplus15HierarchyLocker11getInstanceERKNSt7__cxx1112basic_stringIcSt11char_traitsIcESaIcEEERNS_3spi13LoggerFactoryE
liblog4cplus-1.2.so.5:_ZN9log4cplus15HierarchyLocker18resetConfigurationEv
liblog4cplus-1.2.so.5:_ZN9log4cplus15HierarchyLockerC1ERNS_9HierarchyE
liblog4cplus-1.2.so.5:_ZN9log4cplus15HierarchyLockerC2ERNS_9HierarchyE
liblog4cplus-1.2.so.5:_ZN9log4cplus15HierarchyLockerD1Ev
liblog4cplus-1.2.so.5:_ZN9log4cplus15HierarchyLockerD2Ev
liblog4cplus-1.2.so.5:_ZN9log4cplus15LogLevelManager18pushToStringMethodEPFNSt7__cxx1112basic_stringIcSt11char_traitsIcESaIcEEEiE
liblog4cplus-1.2.so.5:_ZN9log4cplus15LogLevelManager18pushToStringMethodEPFRKNSt7__cxx1112basic_stringIcSt11char_traitsIcESaIcEEEiE
liblog4cplus-1.2.so.5:_ZN9log4cplus15LogLevelManager20pushFromStringMethodEPFiRKNSt7__cxx1112basic_stringIcSt11char_traitsIcESaIcEEEE
liblog4cplus-1.2.so.5:_ZN9log4cplus15LogLevelManagerC1Ev
liblog4cplus-1.2.so.5:_ZN9log4cplus15LogLevelManagerC2Ev
liblog4cplus-1.2.so.5:_ZN9log4cplus15LogLevelManagerD1Ev
liblog4cplus-1.2.so.5:_ZN9log4cplus15LogLevelManagerD2Ev
liblog4cplus-1.2.so.5:_ZN9log4cplus16FileAppenderBase4initEv
liblog4cplus-1.2.so.5:_ZN9log4cplus16FileAppenderBase4openESt13_Ios_Openmode
liblog4cplus-1.2.so.5:_ZN9log4cplus16FileAppenderBase5closeEv
liblog4cplus-1.2.so.5:_ZN9log4cplus16FileAppenderBase5imbueERKSt6locale
liblog4cplus-1.2.so.5:_ZN9log4cplus16FileAppenderBase6appendERKNS_3spi20InternalLoggingEventE
liblog4cplus-1.2.so.5:_ZN9log4cplus16FileAppenderBase6reopenEv
liblog4cplus-1.2.so.5:_ZN9log4cplus16FileAppenderBaseC1ERKNS_7helpers10PropertiesESt13_Ios_Openmode
liblog4cplus-1.2.so.5:_ZN9log4cplus16FileAppenderBaseC1ERKNSt7__cxx1112basic_stringIcSt11char_traitsIcESaIcEEESt13_Ios_Openmodebb
liblog4cplus-1.2.so.5:_ZN9log4cplus16FileAppenderBaseC2ERKNS_7helpers10PropertiesESt13_Ios_Openmode
liblog4cplus-1.2.so.5:_ZN9log4cplus16FileAppenderBaseC2ERKNSt7__cxx1112basic_stringIcSt11char_traitsIcESaIcEEESt13_Ios_Openmodebb
liblog4cplus-1.2.so.5:_ZN9log4cplus16Log4jUdpAppender10openSocketEv
liblog4cplus-1.2.so.5:_ZN9log4cplus16Log4jUdpAppender5closeEv
liblog4cplus-1.2.so.5:_ZN9log4cplus16Log4jUdpAppender6appendERKNS_3spi20InternalLoggingEventE
liblog4cplus-1.2.so.5:_ZN9log4cplus16Log4jUdpAppenderC1ERKNS_7helpers10PropertiesE
liblog4cplus-1.2.so.5:_ZN9log4cplus16Log4jUdpAppenderC1ERKNSt7__cxx1112basic_stringIcSt11char_traitsIcESaIcEEEi
liblog4cplus-1.2.so.5:_ZN9log4cplus16Log4jUdpAppenderC2ERKNS_7helpers10PropertiesE
liblog4cplus-1.2.so.5:_ZN9log4cplus16Log4jUdpAppenderC2ERKNSt7__cxx1112basic_stringIcSt11char_traitsIcESaIcEEEi
liblog4cplus-1.2.so.5:_ZN9log4cplus16Log4jUdpAppenderD0Ev
liblog4cplus-1.2.so.5:_ZN9log4cplus16Log4jUdpAppenderD1Ev
liblog4cplus-1.2.so.5:_ZN9log4cplus16Log4jUdpAppenderD2Ev
liblog4cplus-1.2.so.5:_ZN9log4cplus17BasicConfigurator11doConfigureERNS_9HierarchyEb
liblog4cplus-1.2.so.5:_ZN9log4cplus17BasicConfiguratorC1ERNS_9HierarchyEb
liblog4cplus-1.2.so.5:_ZN9log4cplus17BasicConfiguratorC2ERNS_9HierarchyEb
liblog4cplus-1.2.so.5:_ZN9log4cplus17BasicConfiguratorD0Ev
liblog4cplus-1.2.so.5:_ZN9log4cplus17BasicConfiguratorD1Ev
liblog4cplus-1.2.so.5:_ZN9log4cplus17BasicConfiguratorD2Ev
liblog4cplus-1.2.so.5:_ZN9log4cplus17DiagnosticContext4swapERS0_
liblog4cplus-1.2.so.5:_ZN9log4cplus17DiagnosticContextC1EOS0_
liblog4cplus-1.2.so.5:_ZN9log4cplus17DiagnosticContextC1EPKc
liblog4cplus-1.2.so.5:_ZN9log4cplus17DiagnosticContextC1EPKcPKS0_
liblog4cplus-1.2.so.5:_ZN9log4cplus17DiagnosticContextC1ERKNSt7__cxx1112basic_stringIcSt11char_traitsIcESaIcEEE
liblog4cplus-1.2.so.5:_ZN9log4cplus17DiagnosticContextC1ERKNSt7__cxx1112basic_stringIcSt11char_traitsIcESaIcEEEPKS0_
liblog4cplus-1.2.so.5:_ZN9log4cplus17DiagnosticContextC1ERKS0_
liblog4cplus-1.2.so.5:_ZN9log4cplus17DiagnosticContextC2EOS0_
liblog4cplus-1.2.so.5:_ZN9log4cplus17DiagnosticContextC2EPKc
liblog4cplus-1.2.so.5:_ZN9log4cplus17DiagnosticContextC2EPKcPKS0_
liblog4cplus-1.2.so.5:_ZN9log4cplus17DiagnosticContextC2ERKNSt7__cxx1112basic_stringIcSt11char_traitsIcESaIcEEE
liblog4cplus-1.2.so.5:_ZN9log4cplus17DiagnosticContextC2ERKNSt7__cxx1112basic_stringIcSt11char_traitsIcESaIcEEEPKS0_
liblog4cplus-1.2.so.5:_ZN9log4cplus17DiagnosticContextC2ERKS0_
liblog4cplus-1.2.so.5:_ZN9log4cplus17DiagnosticContextaSEOS0_
liblog4cplus-1.2.so.5:_ZN9log4cplus17DiagnosticContextaSERKS0_
liblog4cplus-1.2.so.5:_ZN9log4cplus17NDCContextCreatorC1EPKc
liblog4cplus-1.2.so.5:_ZN9log4cplus17NDCContextCreatorC1ERKNSt7__cxx1112basic_stringIcSt11char_traitsIcESaIcEEE
liblog4cplus-1.2.so.5:_ZN9log4cplus17NDCContextCreatorC2EPKc
liblog4cplus-1.2.so.5:_ZN9log4cplus17NDCContextCreatorC2ERKNSt7__cxx1112basic_stringIcSt11char_traitsIcESaIcEEE
liblog4cplus-1.2.so.5:_ZN9log4cplus17NDCContextCreatorD1Ev
liblog4cplus-1.2.so.5:_ZN9log4cplus17NDCContextCreatorD2Ev
liblog4cplus-1.2.so.5:_ZN9log4cplus18getLogLevelManagerEv
liblog4cplus-1.2.so.5:_ZN9log4cplus19RollingFileAppender6appendERKNS_3spi20InternalLoggingEventE
liblog4cplus-1.2.so.5:_ZN9log4cplus19RollingFileAppender8rolloverEb
liblog4cplus-1.2.so.5:_ZN9log4cplus19RollingFileAppenderC1ERKNS_7helpers10PropertiesE
liblog4cplus-1.2.so.5:_ZN9log4cplus19RollingFileAppenderC1ERKNSt7__cxx1112basic_stringIcSt11char_traitsIcESaIcEEElibb
liblog4cplus-1.2.so.5:_ZN9log4cplus19RollingFileAppenderC2ERKNS_7helpers10PropertiesE
liblog4cplus-1.2.so.5:_ZN9log4cplus19RollingFileAppenderC2ERKNSt7__cxx1112basic_stringIcSt11char_traitsIcESaIcEEElibb
liblog4cplus-1.2.so.5:_ZN9log4cplus19RollingFileAppenderD0Ev
liblog4cplus-1.2.so.5:_ZN9log4cplus19RollingFileAppenderD1Ev
liblog4cplus-1.2.so.5:_ZN9log4cplus19RollingFileAppenderD2Ev
liblog4cplus-1.2.so.5:_ZN9log4cplus19getDefaultHierarchyEv
liblog4cplus-1.2.so.5:_ZN9log4cplus20DefaultLoggerFactory21makeNewLoggerInstanceERKNSt7__cxx1112basic_stringIcSt11char_traitsIcESaIcEEERNS_9HierarchyE
liblog4cplus-1.2.so.5:_ZN9log4cplus20OnlyOnceErrorHandler5errorERKNSt7__cxx1112basic_stringIcSt11char_traitsIcESaIcEEE
liblog4cplus-1.2.so.5:_ZN9log4cplus20OnlyOnceErrorHandler5resetEv
liblog4cplus-1.2.so.5:_ZN9log4cplus20OnlyOnceErrorHandlerC1Ev
liblog4cplus-1.2.so.5:_ZN9log4cplus20OnlyOnceErrorHandlerC2Ev
liblog4cplus-1.2.so.5:_ZN9log4cplus20OnlyOnceErrorHandlerD0Ev
liblog4cplus-1.2.so.5:_ZN9log4cplus20OnlyOnceErrorHandlerD1Ev
liblog4cplus-1.2.so.5:_ZN9log4cplus20OnlyOnceErrorHandlerD2Ev
liblog4cplus-1.2.so.5:_ZN9log4cplus20PropertyConfigurator11addAppenderERNS_6LoggerERNS_7helpers15SharedObjectPtrINS_8AppenderEEE
liblog4cplus-1.2.so.5:_ZN9log4cplus20PropertyConfigurator11doConfigureERKNSt7__cxx1112basic_stringIcSt11char_traitsIcESaIcEEERNS_9HierarchyEj
liblog4cplus-1.2.so.5:_ZN9log4cplus20PropertyConfigurator11reconfigureEv
liblog4cplus-1.2.so.5:_ZN9log4cplus20PropertyConfigurator15configureLoggerENS_6LoggerERKNSt7__cxx1112basic_stringIcSt11char_traitsIcESaIcEEE
liblog4cplus-1.2.so.5:_ZN9log4cplus20PropertyConfigurator16configureLoggersEv
liblog4cplus-1.2.so.5:_ZN9log4cplus20PropertyConfigurator18configureAppendersEv
liblog4cplus-1.2.so.5:_ZN9log4cplus20PropertyConfigurator19configureAdditivityEv
liblog4cplus-1.2.so.5:_ZN9log4cplus20PropertyConfigurator23replaceEnvironVariablesEv
liblog4cplus-1.2.so.5:_ZN9log4cplus20PropertyConfigurator4initEv
liblog4cplus-1.2.so.5:_ZN9log4cplus20PropertyConfigurator9configureEv
liblog4cplus-1.2.so.5:_ZN9log4cplus20PropertyConfigurator9getLoggerERKNSt7__cxx1112basic_stringIcSt11char_traitsIcESaIcEEE
liblog4cplus-1.2.so.5:_ZN9log4cplus20PropertyConfiguratorC1ERKNS_7helpers10PropertiesERNS_9HierarchyEj
liblog4cplus-1.2.so.5:_ZN9log4cplus20PropertyConfiguratorC1ERKNSt7__cxx1112basic_stringIcSt11char_traitsIcESaIcEEERNS_9HierarchyEj
liblog4cplus-1.2.so.5:_ZN9log4cplus20PropertyConfiguratorC1ERSiRNS_9HierarchyEj
liblog4cplus-1.2.so.5:_ZN9log4cplus20PropertyConfiguratorC2ERKNS_7helpers10PropertiesERNS_9HierarchyEj
liblog4cplus-1.2.so.5:_ZN9log4cplus20PropertyConfiguratorC2ERKNSt7__cxx1112basic_stringIcSt11char_traitsIcESaIcEEERNS_9HierarchyEj
liblog4cplus-1.2.so.5:_ZN9log4cplus20PropertyConfiguratorC2ERSiRNS_9HierarchyEj
liblog4cplus-1.2.so.5:_ZN9log4cplus20PropertyConfiguratorD0Ev
liblog4cplus-1.2.so.5:_ZN9log4cplus20PropertyConfiguratorD1Ev
liblog4cplus-1.2.so.5:_ZN9log4cplus20PropertyConfiguratorD2Ev
liblog4cplus-1.2.so.5:_ZN9log4cplus21getTTCCLayoutTimeBaseEv
liblog4cplus-1.2.so.5:_ZN9log4cplus23ConfigureAndWatchThreadC1ERKNSt7__cxx1112basic_stringIcSt11char_traitsIcESaIcEEEj
liblog4cplus-1.2.so.5:_ZN9log4cplus23ConfigureAndWatchThreadC2ERKNSt7__cxx1112basic_stringIcSt11char_traitsIcESaIcEEEj
liblog4cplus-1.2.so.5:_ZN9log4cplus23ConfigureAndWatchThreadD0Ev
liblog4cplus-1.2.so.5:_ZN9log4cplus23ConfigureAndWatchThreadD1Ev
liblog4cplus-1.2.so.5:_ZN9log4cplus23ConfigureAndWatchThreadD2Ev
liblog4cplus-1.2.so.5:_ZN9log4cplus24DailyRollingFileAppender5closeEv
liblog4cplus-1.2.so.5:_ZN9log4cplus24DailyRollingFileAppender6appendERKNS_3spi20InternalLoggingEventE
liblog4cplus-1.2.so.5:_ZN9log4cplus24DailyRollingFileAppender8rolloverEb
liblog4cplus-1.2.so.5:_ZN9log4cplus24DailyRollingFileAppenderC1ERKNS_7helpers10PropertiesE
liblog4cplus-1.2.so.5:_ZN9log4cplus24DailyRollingFileAppenderC1ERKNSt7__cxx1112basic_stringIcSt11char_traitsIcESaIcEEENS_24DailyRollingFileScheduleEbibbS8_
liblog4cplus-1.2.so.5:_ZN9log4cplus24DailyRollingFileAppenderC2ERKNS_7helpers10PropertiesE
liblog4cplus-1.2.so.5:_ZN9log4cplus24DailyRollingFileAppenderC2ERKNSt7__cxx1112basic_stringIcSt11char_traitsIcESaIcEEENS_24DailyRollingFileScheduleEbibbS8_
liblog4cplus-1.2.so.5:_ZN9log4cplus24DailyRollingFileAppenderD0Ev
liblog4cplus-1.2.so.5:_ZN9log4cplus24DailyRollingFileAppenderD1Ev
liblog4cplus-1.2.so.5:_ZN9log4cplus24DailyRollingFileAppenderD2Ev
liblog4cplus-1.2.so.5:_ZN9log4cplus28TimeBasedRollingFileAppender4openESt13_Ios_Openmode
liblog4cplus-1.2.so.5:_ZN9log4cplus28TimeBasedRollingFileAppender5cleanENS_7helpers4TimeE
liblog4cplus-1.2.so.5:_ZN9log4cplus28TimeBasedRollingFileAppender5closeEv
liblog4cplus-1.2.so.5:_ZN9log4cplus28TimeBasedRollingFileAppender6appendERKNS_3spi20InternalLoggingEventE
liblog4cplus-1.2.so.5:_ZN9log4cplus28TimeBasedRollingFileAppender8rolloverEb
liblog4cplus-1.2.so.5:_ZN9log4cplus28TimeBasedRollingFileAppenderC1ERKNS_7helpers10PropertiesE
liblog4cplus-1.2.so.5:_ZN9log4cplus28TimeBasedRollingFileAppenderC1ERKNSt7__cxx1112basic_stringIcSt11char_traitsIcESaIcEEES8_ibbbb
liblog4cplus-1.2.so.5:_ZN9log4cplus28TimeBasedRollingFileAppenderC2ERKNS_7helpers10PropertiesE
liblog4cplus-1.2.so.5:_ZN9log4cplus28TimeBasedRollingFileAppenderC2ERKNSt7__cxx1112basic_stringIcSt11char_traitsIcESaIcEEES8_ibbbb
liblog4cplus-1.2.so.5:_ZN9log4cplus28TimeBasedRollingFileAppenderD0Ev
liblog4cplus-1.2.so.5:_ZN9log4cplus28TimeBasedRollingFileAppenderD1Ev
liblog4cplus-1.2.so.5:_ZN9log4cplus28TimeBasedRollingFileAppenderD2Ev
liblog4cplus-1.2.so.5:_ZN9log4cplus3MDC3putERKNSt7__cxx1112basic_stringIcSt11char_traitsIcESaIcEEES8_
liblog4cplus-1.2.so.5:_ZN9log4cplus3MDC5clearEv
liblog4cplus-1.2.so.5:_ZN9log4cplus3MDC6removeERKNSt7__cxx1112basic_stringIcSt11char_traitsIcESaIcEEE
liblog4cplus-1.2.so.5:_ZN9log4cplus3MDCC1Ev
liblog4cplus-1.2.so.5:_ZN9log4cplus3MDCC2Ev
liblog4cplus-1.2.so.5:_ZN9log4cplus3MDCD0Ev
liblog4cplus-1.2.so.5:_ZN9log4cplus3MDCD1Ev
liblog4cplus-1.2.so.5:_ZN9log4cplus3MDCD2Ev
liblog4cplus-1.2.so.5:_ZN9log4cplus3NDC11setMaxDepthEm
liblog4cplus-1.2.so.5:_ZN9log4cplus3NDC3popB5cxx11Ev
liblog4cplus-1.2.so.5:_ZN9log4cplus3NDC4pushEPKc
liblog4cplus-1.2.so.5:_ZN9log4cplus3NDC4pushERKNSt7__cxx1112basic_stringIcSt11char_traitsIcESaIcEEE
liblog4cplus-1.2.so.5:_ZN9log4cplus3NDC5clearEv
liblog4cplus-1.2.so.5:_ZN9log4cplus3NDC6removeEv
liblog4cplus-1.2.so.5:_ZN9log4cplus3NDC7inheritERKSt5dequeINS_17DiagnosticContextESaIS2_EE
liblog4cplus-1.2.so.5:_ZN9log4cplus3NDC8pop_voidEv
liblog4cplus-1.2.so.5:_ZN9log4cplus3NDCC1Ev
liblog4cplus-1.2.so.5:_ZN9log4cplus3NDCC2Ev
liblog4cplus-1.2.so.5:_ZN9log4cplus3NDCD0Ev
liblog4cplus-1.2.so.5:_ZN9log4cplus3NDCD1Ev
liblog4cplus-1.2.so.5:_ZN9log4cplus3NDCD2Ev
liblog4cplus-1.2.so.5:_ZN9log4cplus3spi10LoggerImpl13callAppendersERKNS0_20InternalLoggingEventE
liblog4cplus-1.2.so.5:_ZN9log4cplus3spi10LoggerImpl13setAdditivityEb
liblog4cplus-1.2.so.5:_ZN9log4cplus3spi10LoggerImpl20closeNestedAppendersEv
liblog4cplus-1.2.so.5:_ZN9log4cplus3spi10LoggerImpl3logERKNS0_20InternalLoggingEventE
liblog4cplus-1.2.so.5:_ZN9log4cplus3spi10LoggerImpl3logEiRKNSt7__cxx1112basic_stringIcSt11char_traitsIcESaIcEEEPKciSB_
liblog4cplus-1.2.so.5:_ZN9log4cplus3spi10LoggerImpl9forcedLogERKNS0_20InternalLoggingEventE
liblog4cplus-1.2.so.5:_ZN9log4cplus3spi10LoggerImpl9forcedLogEiRKNSt7__cxx1112basic_stringIcSt11char_traitsIcESaIcEEEPKciSB_
liblog4cplus-1.2.so.5:_ZN9log4cplus3spi10LoggerImplC1ERKNSt7__cxx1112basic_stringIcSt11char_traitsIcESaIcEEERNS_9HierarchyE
liblog4cplus-1.2.so.5:_ZN9log4cplus3spi10LoggerImplC2ERKNSt7__cxx1112basic_stringIcSt11char_traitsIcESaIcEEERNS_9HierarchyE
liblog4cplus-1.2.so.5:_ZN9log4cplus3spi10LoggerImplD0Ev
liblog4cplus-1.2.so.5:_ZN9log4cplus3spi10LoggerImplD1Ev
liblog4cplus-1.2.so.5:_ZN9log4cplus3spi10LoggerImplD2Ev
liblog4cplus-1.2.so.5:_ZN9log4cplus3spi10RootLogger11setLogLevelEi
liblog4cplus-1.2.so.5:_ZN9log4cplus3spi10RootLoggerC1ERNS_9HierarchyEi
liblog4cplus-1.2.so.5:_ZN9log4cplus3spi10RootLoggerC2ERNS_9HierarchyEi
liblog4cplus-1.2.so.5:_ZN9log4cplus3spi11BaseFactoryD0Ev
liblog4cplus-1.2.so.5:_ZN9log4cplus3spi11BaseFactoryD1Ev
liblog4cplus-1.2.so.5:_ZN9log4cplus3spi11BaseFactoryD2Ev
liblog4cplus-1.2.so.5:_ZN9log4cplus3spi11checkFilterEPKNS0_6FilterERKNS0_20InternalLoggingEventE
liblog4cplus-1.2.so.5:_ZN9log4cplus3spi13DenyAllFilterC1ERKNS_7helpers10PropertiesE
liblog4cplus-1.2.so.5:_ZN9log4cplus3spi13DenyAllFilterC1Ev
liblog4cplus-1.2.so.5:_ZN9log4cplus3spi13DenyAllFilterC2ERKNS_7helpers10PropertiesE
liblog4cplus-1.2.so.5:_ZN9log4cplus3spi13DenyAllFilterC2Ev
liblog4cplus-1.2.so.5:_ZN9log4cplus3spi13FilterFactoryC1Ev
liblog4cplus-1.2.so.5:_ZN9log4cplus3spi13FilterFactoryC2Ev
liblog4cplus-1.2.so.5:_ZN9log4cplus3spi13FilterFactoryD0Ev
liblog4cplus-1.2.so.5:_ZN9log4cplus3spi13FilterFactoryD1Ev
liblog4cplus-1.2.so.5:_ZN9log4cplus3spi13FilterFactoryD2Ev
liblog4cplus-1.2.so.5:_ZN9log4cplus3spi13LayoutFactoryC1Ev
liblog4cplus-1.2.so.5:_ZN9log4cplus3spi13LayoutFactoryC2Ev
liblog4cplus-1.2.so.5:_ZN9log4cplus3spi13LayoutFactoryD0Ev
liblog4cplus-1.2.so.5:_ZN9log4cplus3spi13LayoutFactoryD1Ev
liblog4cplus-1.2.so.5:_ZN9log4cplus3spi13LayoutFactoryD2Ev
liblog4cplus-1.2.so.5:_ZN9log4cplus3spi13LocaleFactoryC1Ev
liblog4cplus-1.2.so.5:_ZN9log4cplus3spi13LocaleFactoryC2Ev
liblog4cplus-1.2.so.5:_ZN9log4cplus3spi13LocaleFactoryD0Ev
liblog4cplus-1.2.so.5:_ZN9log4cplus3spi13LocaleFactoryD1Ev
liblog4cplus-1.2.so.5:_ZN9log4cplus3spi13LocaleFactoryD2Ev
liblog4cplus-1.2.so.5:_ZN9log4cplus3spi13LoggerFactoryD0Ev
liblog4cplus-1.2.so.5:_ZN9log4cplus3spi13LoggerFactoryD1Ev
liblog4cplus-1.2.so.5:_ZN9log4cplus3spi13LoggerFactoryD2Ev
liblog4cplus-1.2.so.5:_ZN9log4cplus3spi15AppenderFactoryC1Ev
liblog4cplus-1.2.so.5:_ZN9log4cplus3spi15AppenderFactoryC2Ev
liblog4cplus-1.2.so.5:_ZN9log4cplus3spi15AppenderFactoryD0Ev
liblog4cplus-1.2.so.5:_ZN9log4cplus3spi15AppenderFactoryD1Ev
liblog4cplus-1.2.so.5:_ZN9log4cplus3spi15AppenderFactoryD2Ev
liblog4cplus-1.2.so.5:_ZN9log4cplus3spi17StringMatchFilterC1ERKNS_7helpers10PropertiesE
liblog4cplus-1.2.so.5:_ZN9log4cplus3spi17StringMatchFilterC1Ev
liblog4cplus-1.2.so.5:_ZN9log4cplus3spi17StringMatchFilterC2ERKNS_7helpers10PropertiesE
liblog4cplus-1.2.so.5:_ZN9log4cplus3spi17StringMatchFilterC2Ev
liblog4cplus-1.2.so.5:_ZN9log4cplus3spi18AppenderAttachableD0Ev
liblog4cplus-1.2.so.5:_ZN9log4cplus3spi18AppenderAttachableD1Ev
liblog4cplus-1.2.so.5:_ZN9log4cplus3spi18AppenderAttachableD2Ev
liblog4cplus-1.2.so.5:_ZN9log4cplus3spi18ObjectRegistryBase14_enableLockingEb
liblog4cplus-1.2.so.5:_ZN9log4cplus3spi18ObjectRegistryBase5clearEv
liblog4cplus-1.2.so.5:_ZN9log4cplus3spi18ObjectRegistryBase6putValERKNSt7__cxx1112basic_stringIcSt11char_traitsIcESaIcEEEPv
liblog4cplus-1.2.so.5:_ZN9log4cplus3spi18ObjectRegistryBaseC1Ev
liblog4cplus-1.2.so.5:_ZN9log4cplus3spi18ObjectRegistryBaseC2Ev
liblog4cplus-1.2.so.5:_ZN9log4cplus3spi18ObjectRegistryBaseD0Ev
liblog4cplus-1.2.so.5:_ZN9log4cplus3spi18ObjectRegistryBaseD1Ev
liblog4cplus-1.2.so.5:_ZN9log4cplus3spi18ObjectRegistryBaseD2Ev
liblog4cplus-1.2.so.5:_ZN9log4cplus3spi19LogLevelMatchFilterC1ERKNS_7helpers10PropertiesE
liblog4cplus-1.2.so.5:_ZN9log4cplus3spi19LogLevelMatchFilterC1Ev
liblog4cplus-1.2.so.5:_ZN9log4cplus3spi19LogLevelMatchFilterC2ERKNS_7helpers10PropertiesE
liblog4cplus-1.2.so.5:_ZN9log4cplus3spi19LogLevelMatchFilterC2Ev
liblog4cplus-1.2.so.5:_ZN9log4cplus3spi19LogLevelRangeFilterC1ERKNS_7helpers10PropertiesE
liblog4cplus-1.2.so.5:_ZN9log4cplus3spi19LogLevelRangeFilterC1Ev
liblog4cplus-1.2.so.5:_ZN9log4cplus3spi19LogLevelRangeFilterC2ERKNS_7helpers10PropertiesE
liblog4cplus-1.2.so.5:_ZN9log4cplus3spi19LogLevelRangeFilterC2Ev
liblog4cplus-1.2.so.5:_ZN9log4cplus3spi20InternalLoggingEvent11setFunctionEPKc
liblog4cplus-1.2.so.5:_ZN9log4cplus3spi20InternalLoggingEvent11setFunctionERKNSt7__cxx1112basic_stringIcSt11char_traitsIcESaIcEEE
liblog4cplus-1.2.so.5:_ZN9log4cplus3spi20InternalLoggingEvent14getDefaultTypeEv
liblog4cplus-1.2.so.5:_ZN9log4cplus3spi20InternalLoggingEvent15setLoggingEventERKNSt7__cxx1112basic_stringIcSt11char_traitsIcESaIcEEEiS9_PKciSB_
liblog4cplus-1.2.so.5:_ZN9log4cplus3spi20InternalLoggingEvent4swapERS1_
liblog4cplus-1.2.so.5:_ZN9log4cplus3spi20InternalLoggingEventC1ERKNSt7__cxx1112basic_stringIcSt11char_traitsIcESaIcEEEiS9_PKciSB_
liblog4cplus-1.2.so.5:_ZN9log4cplus3spi20InternalLoggingEventC1ERKNSt7__cxx1112basic_stringIcSt11char_traitsIcESaIcEEEiS9_RKSt3mapIS7_S7_St4lessIS7_ESaISt4pairIS8_S7_EEES9_S9_NS_7helpers4TimeES9_iS9_
liblog4cplus-1.2.so.5:_ZN9log4cplus3spi20InternalLoggingEventC1ERKNSt7__cxx1112basic_stringIcSt11char_traitsIcESaIcEEEiS9_RKSt3mapIS7_S7_St4lessIS7_ESaISt4pairIS8_S7_EEES9_S9_S9_NS_7helpers4TimeES9_iS9_
liblog4cplus-1.2.so.5:_ZN9log4cplus3spi20InternalLoggingEventC1ERKS1_
liblog4cplus-1.2.so.5:_ZN9log4cplus3spi20InternalLoggingEventC1Ev
liblog4cplus-1.2.so.5:_ZN9log4cplus3spi20InternalLoggingEventC2ERKNSt7__cxx1112basic_stringIcSt11char_traitsIcESaIcEEEiS9_PKciSB_
liblog4cplus-1.2.so.5:_ZN9log4cplus3spi20InternalLoggingEventC2ERKNSt7__cxx1112basic_stringIcSt11char_traitsIcESaIcEEEiS9_RKSt3mapIS7_S7_St4lessIS7_ESaISt4pairIS8_S7_EEES9_S9_NS_7helpers4TimeES9_iS9_
liblog4cplus-1.2.so.5:_ZN9log4cplus3spi20InternalLoggingEventC2ERKNSt7__cxx1112basic_stringIcSt11char_traitsIcESaIcEEEiS9_RKSt3mapIS7_S7_St4lessIS7_ESaISt4pairIS8_S7_EEES9_S9_S9_NS_7helpers4TimeES9_iS9_
liblog4cplus-1.2.so.5:_ZN9log4cplus3spi20InternalLoggingEventC2ERKS1_
liblog4cplus-1.2.so.5:_ZN9log4cplus3spi20InternalLoggingEventC2Ev
liblog4cplus-1.2.so.5:_ZN9log4cplus3spi20InternalLoggingEventD0Ev
liblog4cplus-1.2.so.5:_ZN9log4cplus3spi20InternalLoggingEventD1Ev
liblog4cplus-1.2.so.5:_ZN9log4cplus3spi20InternalLoggingEventD2Ev
liblog4cplus-1.2.so.5:_ZN9log4cplus3spi20InternalLoggingEventaSERKS1_
liblog4cplus-1.2.so.5:_ZN9log4cplus3spi24getFilterFactoryRegistryEv
liblog4cplus-1.2.so.5:_ZN9log4cplus3spi24getLayoutFactoryRegistryEv
liblog4cplus-1.2.so.5:_ZN9log4cplus3spi24getLocaleFactoryRegistryEv
liblog4cplus-1.2.so.5:_ZN9log4cplus3spi26getAppenderFactoryRegistryEv
liblog4cplus-1.2.so.5:_ZN9log4cplus3spi6Filter12appendFilterENS_7helpers15SharedObjectPtrIS1_EE
liblog4cplus-1.2.so.5:_ZN9log4cplus3spi6FilterC1Ev
liblog4cplus-1.2.so.5:_ZN9log4cplus3spi6FilterC2Ev
liblog4cplus-1.2.so.5:_ZN9log4cplus3spi6FilterD0Ev
liblog4cplus-1.2.so.5:_ZN9log4cplus3spi6FilterD1Ev
liblog4cplus-1.2.so.5:_ZN9log4cplus3spi6FilterD2Ev
liblog4cplus-1.2.so.5:_ZN9log4cplus6LayoutC1ERKNS_7helpers10PropertiesE
liblog4cplus-1.2.so.5:_ZN9log4cplus6LayoutC1Ev
liblog4cplus-1.2.so.5:_ZN9log4cplus6LayoutC2ERKNS_7helpers10PropertiesE
liblog4cplus-1.2.so.5:_ZN9log4cplus6LayoutC2Ev
liblog4cplus-1.2.so.5:_ZN9log4cplus6LayoutD0Ev
liblog4cplus-1.2.so.5:_ZN9log4cplus6LayoutD1Ev
liblog4cplus-1.2.so.5:_ZN9log4cplus6LayoutD2Ev
liblog4cplus-1.2.so.5:_ZN9log4cplus6Logger11addAppenderENS_7helpers15SharedObjectPtrINS_8AppenderEEE
liblog4cplus-1.2.so.5:_ZN9log4cplus6Logger11getAppenderERKNSt7__cxx1112basic_stringIcSt11char_traitsIcESaIcEEE
liblog4cplus-1.2.so.5:_ZN9log4cplus6Logger11getInstanceERKNSt7__cxx1112basic_stringIcSt11char_traitsIcESaIcEEE
liblog4cplus-1.2.so.5:_ZN9log4cplus6Logger11getInstanceERKNSt7__cxx1112basic_stringIcSt11char_traitsIcESaIcEEERNS_3spi13LoggerFactoryE
liblog4cplus-1.2.so.5:_ZN9log4cplus6Logger11setLogLevelEi
liblog4cplus-1.2.so.5:_ZN9log4cplus6Logger13setAdditivityEb
liblog4cplus-1.2.so.5:_ZN9log4cplus6Logger14removeAppenderENS_7helpers15SharedObjectPtrINS_8AppenderEEE
liblog4cplus-1.2.so.5:_ZN9log4cplus6Logger14removeAppenderERKNSt7__cxx1112basic_stringIcSt11char_traitsIcESaIcEEE
liblog4cplus-1.2.so.5:_ZN9log4cplus6Logger15getAllAppendersEv
liblog4cplus-1.2.so.5:_ZN9log4cplus6Logger17getCurrentLoggersEv
liblog4cplus-1.2.so.5:_ZN9log4cplus6Logger18removeAllAppendersEv
liblog4cplus-1.2.so.5:_ZN9log4cplus6Logger19getDefaultHierarchyEv
liblog4cplus-1.2.so.5:_ZN9log4cplus6Logger4swapERS0_
liblog4cplus-1.2.so.5:_ZN9log4cplus6Logger6existsERKNSt7__cxx1112basic_stringIcSt11char_traitsIcESaIcEEE
liblog4cplus-1.2.so.5:_ZN9log4cplus6Logger7getRootEv
liblog4cplus-1.2.so.5:_ZN9log4cplus6Logger8shutdownEv
liblog4cplus-1.2.so.5:_ZN9log4cplus6LoggerC1EOS0_
liblog4cplus-1.2.so.5:_ZN9log4cplus6LoggerC1ERKS0_
liblog4cplus-1.2.so.5:_ZN9log4cplus6LoggerC1Ev
liblog4cplus-1.2.so.5:_ZN9log4cplus6LoggerC2EOS0_
liblog4cplus-1.2.so.5:_ZN9log4cplus6LoggerC2ERKS0_
liblog4cplus-1.2.so.5:_ZN9log4cplus6LoggerC2Ev
liblog4cplus-1.2.so.5:_ZN9log4cplus6LoggerD0Ev
liblog4cplus-1.2.so.5:_ZN9log4cplus6LoggerD1Ev
liblog4cplus-1.2.so.5:_ZN9log4cplus6LoggerD2Ev
liblog4cplus-1.2.so.5:_ZN9log4cplus6LoggeraSEOS0_
liblog4cplus-1.2.so.5:_ZN9log4cplus6LoggeraSERKS0_
liblog4cplus-1.2.so.5:_ZN9log4cplus6detail16macro_forced_logERKNS_6LoggerEiPKcS5_iS5_
liblog4cplus-1.2.so.5:_ZN9log4cplus6detail16macro_forced_logERKNS_6LoggerEiRKNSt7__cxx1112basic_stringIcSt11char_traitsIcESaIcEEEPKciSD_
liblog4cplus-1.2.so.5:_ZN9log4cplus6detail18get_macro_body_ossB5cxx11Ev
liblog4cplus-1.2.so.5:_ZN9log4cplus6detail20clear_tostringstreamERNSt7__cxx1119basic_ostringstreamIcSt11char_traitsIcESaIcEEE
liblog4cplus-1.2.so.5:_ZN9log4cplus6detail27get_macro_body_snprintf_bufEv
liblog4cplus-1.2.so.5:_ZN9log4cplus6getMDCEv
liblog4cplus-1.2.so.5:_ZN9log4cplus6getNDCEv
liblog4cplus-1.2.so.5:_ZN9log4cplus6thread11SharedMutexC1Ev
liblog4cplus-1.2.so.5:_ZN9log4cplus6thread11SharedMutexC2Ev
liblog4cplus-1.2.so.5:_ZN9log4cplus6thread11SharedMutexD1Ev
liblog4cplus-1.2.so.5:_ZN9log4cplus6thread11SharedMutexD2Ev
liblog4cplus-1.2.so.5:_ZN9log4cplus6thread14AbstractThread5startEv
liblog4cplus-1.2.so.5:_ZN9log4cplus6thread14AbstractThreadC1Ev
liblog4cplus-1.2.so.5:_ZN9log4cplus6thread14AbstractThreadC2Ev
liblog4cplus-1.2.so.5:_ZN9log4cplus6thread14AbstractThreadD0Ev
liblog4cplus-1.2.so.5:_ZN9log4cplus6thread14AbstractThreadD1Ev
liblog4cplus-1.2.so.5:_ZN9log4cplus6thread14AbstractThreadD2Ev
liblog4cplus-1.2.so.5:_ZN9log4cplus6thread15blockAllSignalsEv
liblog4cplus-1.2.so.5:_ZN9log4cplus6thread16ManualResetEventC1Eb
liblog4cplus-1.2.so.5:_ZN9log4cplus6thread16ManualResetEventC2Eb
liblog4cplus-1.2.so.5:_ZN9log4cplus6thread16ManualResetEventD1Ev
liblog4cplus-1.2.so.5:_ZN9log4cplus6thread16ManualResetEventD2Ev
liblog4cplus-1.2.so.5:_ZN9log4cplus6thread20getCurrentThreadNameB5cxx11Ev
liblog4cplus-1.2.so.5:_ZN9log4cplus6thread20setCurrentThreadNameERKNSt7__cxx1112basic_stringIcSt11char_traitsIcESaIcEEE
liblog4cplus-1.2.so.5:_ZN9log4cplus6thread21getCurrentThreadName2B5cxx11Ev
liblog4cplus-1.2.so.5:_ZN9log4cplus6thread21setCurrentThreadName2ERKNSt7__cxx1112basic_stringIcSt11char_traitsIcESaIcEEE
liblog4cplus-1.2.so.5:_ZN9log4cplus6thread4impl25syncprims_throw_exceptionEPKcS3_i
liblog4cplus-1.2.so.5:_ZN9log4cplus6thread5MutexC1ENS1_4TypeE
liblog4cplus-1.2.so.5:_ZN9log4cplus6thread5MutexC2ENS1_4TypeE
liblog4cplus-1.2.so.5:_ZN9log4cplus6thread5MutexD1Ev
liblog4cplus-1.2.so.5:_ZN9log4cplus6thread5MutexD2Ev
liblog4cplus-1.2.so.5:_ZN9log4cplus6thread5Queue10get_eventsEPSt5dequeINS_3spi20InternalLoggingEventESaIS4_EE
liblog4cplus-1.2.so.5:_ZN9log4cplus6thread5Queue11signal_exitEb
liblog4cplus-1.2.so.5:_ZN9log4cplus6thread5Queue9put_eventERKNS_3spi20InternalLoggingEventE
liblog4cplus-1.2.so.5:_ZN9log4cplus6thread5QueueC1Ej
liblog4cplus-1.2.so.5:_ZN9log4cplus6thread5QueueC2Ej
liblog4cplus-1.2.so.5:_ZN9log4cplus6thread5QueueD0Ev
liblog4cplus-1.2.so.5:_ZN9log4cplus6thread5QueueD1Ev
liblog4cplus-1.2.so.5:_ZN9log4cplus6thread5QueueD2Ev
liblog4cplus-1.2.so.5:_ZN9log4cplus6thread5yieldEv
liblog4cplus-1.2.so.5:_ZN9log4cplus6thread9FairMutexC1Ev
liblog4cplus-1.2.so.5:_ZN9log4cplus6thread9FairMutexC2Ev
liblog4cplus-1.2.so.5:_ZN9log4cplus6thread9FairMutexD1Ev
liblog4cplus-1.2.so.5:_ZN9log4cplus6thread9FairMutexD2Ev
liblog4cplus-1.2.so.5:_ZN9log4cplus6thread9SemaphoreC1Ejj
liblog4cplus-1.2.so.5:_ZN9log4cplus6thread9SemaphoreC2Ejj
liblog4cplus-1.2.so.5:_ZN9log4cplus6thread9SemaphoreD1Ev
liblog4cplus-1.2.so.5:_ZN9log4cplus6thread9SemaphoreD2Ev
liblog4cplus-1.2.so.5:_ZN9log4cplus7helpers10LogLogUserC1ERKS1_
liblog4cplus-1.2.so.5:_ZN9log4cplus7helpers10LogLogUserC1Ev
liblog4cplus-1.2.so.5:_ZN9log4cplus7helpers10LogLogUserC2ERKS1_
liblog4cplus-1.2.so.5:_ZN9log4cplus7helpers10LogLogUserC2Ev
liblog4cplus-1.2.so.5:_ZN9log4cplus7helpers10LogLogUserD0Ev
liblog4cplus-1.2.so.5:_ZN9log4cplus7helpers10LogLogUserD1Ev
liblog4cplus-1.2.so.5:_ZN9log4cplus7helpers10LogLogUserD2Ev
liblog4cplus-1.2.so.5:_ZN9log4cplus7helpers10LogLogUseraSERKS1_
liblog4cplus-1.2.so.5:_ZN9log4cplus7helpers10Properties11setPropertyERKNSt7__cxx1112basic_stringIcSt11char_traitsIcESaIcEEES9_
liblog4cplus-1.2.so.5:_ZN9log4cplus7helpers10Properties14removePropertyERKNSt7__cxx1112basic_stringIcSt11char_traitsIcESaIcEEE
liblog4cplus-1.2.so.5:_ZN9log4cplus7helpers10Properties4initERSi
liblog4cplus-1.2.so.5:_ZN9log4cplus7helpers10PropertiesC1ERKNSt7__cxx1112basic_stringIcSt11char_traitsIcESaIcEEEj
liblog4cplus-1.2.so.5:_ZN9log4cplus7helpers10PropertiesC1ERSi
liblog4cplus-1.2.so.5:_ZN9log4cplus7helpers10PropertiesC1Ev
liblog4cplus-1.2.so.5:_ZN9log4cplus7helpers10PropertiesC2ERKNSt7__cxx1112basic_stringIcSt11char_traitsIcESaIcEEEj
liblog4cplus-1.2.so.5:_ZN9log4cplus7helpers10PropertiesC2ERSi
liblog4cplus-1.2.so.5:_ZN9log4cplus7helpers10PropertiesC2Ev
liblog4cplus-1.2.so.5:_ZN9log4cplus7helpers10PropertiesD0Ev
liblog4cplus-1.2.so.5:_ZN9log4cplus7helpers10PropertiesD1Ev
liblog4cplus-1.2.so.5:_ZN9log4cplus7helpers10PropertiesD2Ev
liblog4cplus-1.2.so.5:_ZN9log4cplus7helpers10openSocketEtRNS0_11SocketStateE
liblog4cplus-1.2.so.5:_ZN9log4cplus7helpers11closeSocketEl
liblog4cplus-1.2.so.5:_ZN9log4cplus7helpers11getFileInfoEPNS0_8FileInfoERKNSt7__cxx1112basic_stringIcSt11char_traitsIcESaIcEEE
liblog4cplus-1.2.so.5:_ZN9log4cplus7helpers11getHostnameB5cxx11Eb
liblog4cplus-1.2.so.5:_ZN9log4cplus7helpers11sleepmillisEm
liblog4cplus-1.2.so.5:_ZN9log4cplus7helpers12ServerSocket15interruptAcceptEv
liblog4cplus-1.2.so.5:_ZN9log4cplus7helpers12ServerSocket6acceptEv
liblog4cplus-1.2.so.5:_ZN9log4cplus7helpers12ServerSocketC1Et
liblog4cplus-1.2.so.5:_ZN9log4cplus7helpers12ServerSocketC2Et
liblog4cplus-1.2.so.5:_ZN9log4cplus7helpers12ServerSocketD0Ev
liblog4cplus-1.2.so.5:_ZN9log4cplus7helpers12ServerSocketD1Ev
liblog4cplus-1.2.so.5:_ZN9log4cplus7helpers12ServerSocketD2Ev
liblog4cplus-1.2.so.5:_ZN9log4cplus7helpers12SharedObjectD0Ev
liblog4cplus-1.2.so.5:_ZN9log4cplus7helpers12SharedObjectD1Ev
liblog4cplus-1.2.so.5:_ZN9log4cplus7helpers12SharedObjectD2Ev
liblog4cplus-1.2.so.5:_ZN9log4cplus7helpers12SocketBuffer10appendByteEh
liblog4cplus-1.2.so.5:_ZN9log4cplus7helpers12SocketBuffer10readStringB5cxx11Eh
liblog4cplus-1.2.so.5:_ZN9log4cplus7helpers12SocketBuffer11appendShortEt
liblog4cplus-1.2.so.5:_ZN9log4cplus7helpers12SocketBuffer12appendBufferERKS1_
liblog4cplus-1.2.so.5:_ZN9log4cplus7helpers12SocketBuffer12appendStringERKNSt7__cxx1112basic_stringIcSt11char_traitsIcESaIcEEE
liblog4cplus-1.2.so.5:_ZN9log4cplus7helpers12SocketBuffer7readIntEv
liblog4cplus-1.2.so.5:_ZN9log4cplus7helpers12SocketBuffer8readByteEv
liblog4cplus-1.2.so.5:_ZN9log4cplus7helpers12SocketBuffer9appendIntEj
liblog4cplus-1.2.so.5:_ZN9log4cplus7helpers12SocketBuffer9readShortEv
liblog4cplus-1.2.so.5:_ZN9log4cplus7helpers12SocketBufferC1Em
liblog4cplus-1.2.so.5:_ZN9log4cplus7helpers12SocketBufferC2Em
liblog4cplus-1.2.so.5:_ZN9log4cplus7helpers12SocketBufferD0Ev
liblog4cplus-1.2.so.5:_ZN9log4cplus7helpers12SocketBufferD1Ev
liblog4cplus-1.2.so.5:_ZN9log4cplus7helpers12SocketBufferD2Ev
liblog4cplus-1.2.so.5:_ZN9log4cplus7helpers12acceptSocketElRNS0_11SocketStateE
liblog4cplus-1.2.so.5:_ZN9log4cplus7helpers12snprintf_buf13print_va_listERPKcS3_P13__va_list_tag
liblog4cplus-1.2.so.5:_ZN9log4cplus7helpers12snprintf_buf5printEPKcz
liblog4cplus-1.2.so.5:_ZN9log4cplus7helpers12snprintf_bufC1Ev
liblog4cplus-1.2.so.5:_ZN9log4cplus7helpers12snprintf_bufC2Ev
liblog4cplus-1.2.so.5:_ZN9log4cplus7helpers13connectSocketERKNSt7__cxx1112basic_stringIcSt11char_traitsIcESaIcEEEtbRNS0_11SocketStateE
liblog4cplus-1.2.so.5:_ZN9log4cplus7helpers13setTCPNoDelayElb
liblog4cplus-1.2.so.5:_ZN9log4cplus7helpers14AbstractSocket4copyERKS1_
liblog4cplus-1.2.so.5:_ZN9log4cplus7helpers14AbstractSocket5closeEv
liblog4cplus-1.2.so.5:_ZN9log4cplus7helpers14AbstractSocket8shutdownEv
liblog4cplus-1.2.so.5:_ZN9log4cplus7helpers14AbstractSocketC1ERKS1_
liblog4cplus-1.2.so.5:_ZN9log4cplus7helpers14AbstractSocketC1ElNS0_11SocketStateEi
liblog4cplus-1.2.so.5:_ZN9log4cplus7helpers14AbstractSocketC1Ev
liblog4cplus-1.2.so.5:_ZN9log4cplus7helpers14AbstractSocketC2ERKS1_
liblog4cplus-1.2.so.5:_ZN9log4cplus7helpers14AbstractSocketC2ElNS0_11SocketStateEi
liblog4cplus-1.2.so.5:_ZN9log4cplus7helpers14AbstractSocketC2Ev
liblog4cplus-1.2.so.5:_ZN9log4cplus7helpers14AbstractSocketD0Ev
liblog4cplus-1.2.so.5:_ZN9log4cplus7helpers14AbstractSocketD1Ev
liblog4cplus-1.2.so.5:_ZN9log4cplus7helpers14AbstractSocketD2Ev
liblog4cplus-1.2.so.5:_ZN9log4cplus7helpers14AbstractSocketaSERKS1_
liblog4cplus-1.2.so.5:_ZN9log4cplus7helpers14readFromBufferERNS0_12SocketBufferE
liblog4cplus-1.2.so.5:_ZN9log4cplus7helpers14shutdownSocketEl
liblog4cplus-1.2.so.5:_ZN9log4cplus7helpers15ConnectorThread3runEv
liblog4cplus-1.2.so.5:_ZN9log4cplus7helpers15ConnectorThread7triggerEv
liblog4cplus-1.2.so.5:_ZN9log4cplus7helpers15ConnectorThread9terminateEv
liblog4cplus-1.2.so.5:_ZN9log4cplus7helpers15ConnectorThreadC1ERNS0_22IConnectorThreadClientE
liblog4cplus-1.2.so.5:_ZN9log4cplus7helpers15ConnectorThreadC2ERNS0_22IConnectorThreadClientE
liblog4cplus-1.2.so.5:_ZN9log4cplus7helpers15ConnectorThreadD0Ev
liblog4cplus-1.2.so.5:_ZN9log4cplus7helpers15ConnectorThreadD1Ev
liblog4cplus-1.2.so.5:_ZN9log4cplus7helpers15ConnectorThreadD2Ev
liblog4cplus-1.2.so.5:_ZN9log4cplus7helpers15convertToBufferERNS0_12SocketBufferERKNS_3spi20InternalLoggingEventERKNSt7__cxx1112basic_stringIcSt11char_traitsIcESaIcEEE
liblog4cplus-1.2.so.5:_ZN9log4cplus7helpers22AppenderAttachableImpl11addAppenderENS0_15SharedObjectPtrINS_8AppenderEEE
liblog4cplus-1.2.so.5:_ZN9log4cplus7helpers22AppenderAttachableImpl11getAppenderERKNSt7__cxx1112basic_stringIcSt11char_traitsIcESaIcEEE
liblog4cplus-1.2.so.5:_ZN9log4cplus7helpers22AppenderAttachableImpl14removeAppenderENS0_15SharedObjectPtrINS_8AppenderEEE
liblog4cplus-1.2.so.5:_ZN9log4cplus7helpers22AppenderAttachableImpl14removeAppenderERKNSt7__cxx1112basic_stringIcSt11char_traitsIcESaIcEEE
liblog4cplus-1.2.so.5:_ZN9log4cplus7helpers22AppenderAttachableImpl15getAllAppendersEv
liblog4cplus-1.2.so.5:_ZN9log4cplus7helpers22AppenderAttachableImpl18removeAllAppendersEv
liblog4cplus-1.2.so.5:_ZN9log4cplus7helpers22AppenderAttachableImplC1Ev
liblog4cplus-1.2.so.5:_ZN9log4cplus7helpers22AppenderAttachableImplC2Ev
liblog4cplus-1.2.so.5:_ZN9log4cplus7helpers22AppenderAttachableImplD0Ev
liblog4cplus-1.2.so.5:_ZN9log4cplus7helpers22AppenderAttachableImplD1Ev
liblog4cplus-1.2.so.5:_ZN9log4cplus7helpers22AppenderAttachableImplD2Ev
liblog4cplus-1.2.so.5:_ZN9log4cplus7helpers22IConnectorThreadClientD0Ev
liblog4cplus-1.2.so.5:_ZN9log4cplus7helpers22IConnectorThreadClientD1Ev
liblog4cplus-1.2.so.5:_ZN9log4cplus7helpers22IConnectorThreadClientD2Ev
liblog4cplus-1.2.so.5:_ZN9log4cplus7helpers4Time12gettimeofdayEv
liblog4cplus-1.2.so.5:_ZN9log4cplus7helpers4Time7setTimeEP2tm
liblog4cplus-1.2.so.5:_ZN9log4cplus7helpers4TimeC1El
liblog4cplus-1.2.so.5:_ZN9log4cplus7helpers4TimeC1Ell
liblog4cplus-1.2.so.5:_ZN9log4cplus7helpers4TimeC1Ev
liblog4cplus-1.2.so.5:_ZN9log4cplus7helpers4TimeC2El
liblog4cplus-1.2.so.5:_ZN9log4cplus7helpers4TimeC2Ell
liblog4cplus-1.2.so.5:_ZN9log4cplus7helpers4TimeC2Ev
liblog4cplus-1.2.so.5:_ZN9log4cplus7helpers4TimedVEl
liblog4cplus-1.2.so.5:_ZN9log4cplus7helpers4TimemIERKS1_
liblog4cplus-1.2.so.5:_ZN9log4cplus7helpers4TimemLEl
liblog4cplus-1.2.so.5:_ZN9log4cplus7helpers4TimepLERKS1_
liblog4cplus-1.2.so.5:_ZN9log4cplus7helpers4readElRNS0_12SocketBufferE
liblog4cplus-1.2.so.5:_ZN9log4cplus7helpers5sleepEmm
liblog4cplus-1.2.so.5:_ZN9log4cplus7helpers5writeElRKNS0_12SocketBufferE
liblog4cplus-1.2.so.5:_ZN9log4cplus7helpers5writeElRKNSt7__cxx1112basic_stringIcSt11char_traitsIcESaIcEEE
liblog4cplus-1.2.so.5:_ZN9log4cplus7helpers6LogLog12setQuietModeEb
liblog4cplus-1.2.so.5:_ZN9log4cplus7helpers6LogLog20setInternalDebuggingEb
liblog4cplus-1.2.so.5:_ZN9log4cplus7helpers6LogLog9getLogLogEv
liblog4cplus-1.2.so.5:_ZN9log4cplus7helpers6LogLogC1Ev
liblog4cplus-1.2.so.5:_ZN9log4cplus7helpers6LogLogC2Ev
liblog4cplus-1.2.so.5:_ZN9log4cplus7helpers6LogLogD0Ev
liblog4cplus-1.2.so.5:_ZN9log4cplus7helpers6LogLogD1Ev
liblog4cplus-1.2.so.5:_ZN9log4cplus7helpers6LogLogD2Ev
liblog4cplus-1.2.so.5:_ZN9log4cplus7helpers6Socket4readERNS0_12SocketBufferE
liblog4cplus-1.2.so.5:_ZN9log4cplus7helpers6Socket5writeERKNS0_12SocketBufferE
liblog4cplus-1.2.so.5:_ZN9log4cplus7helpers6Socket5writeERKNSt7__cxx1112basic_stringIcSt11char_traitsIcESaIcEEE
liblog4cplus-1.2.so.5:_ZN9log4cplus7helpers6SocketC1ERKNSt7__cxx1112basic_stringIcSt11char_traitsIcESaIcEEEtb
liblog4cplus-1.2.so.5:_ZN9log4cplus7helpers6SocketC1ElNS0_11SocketStateEi
liblog4cplus-1.2.so.5:_ZN9log4cplus7helpers6SocketC1Ev
liblog4cplus-1.2.so.5:_ZN9log4cplus7helpers6SocketC2ERKNSt7__cxx1112basic_stringIcSt11char_traitsIcESaIcEEEtb
liblog4cplus-1.2.so.5:_ZN9log4cplus7helpers6SocketC2ElNS0_11SocketStateEi
liblog4cplus-1.2.so.5:_ZN9log4cplus7helpers6SocketC2Ev
liblog4cplus-1.2.so.5:_ZN9log4cplus7helpers6SocketD0Ev
liblog4cplus-1.2.so.5:_ZN9log4cplus7helpers6SocketD1Ev
liblog4cplus-1.2.so.5:_ZN9log4cplus7helpers6SocketD2Ev
liblog4cplus-1.2.so.5:_ZN9log4cplus7helpers7toLowerERKNSt7__cxx1112basic_stringIcSt11char_traitsIcESaIcEEE
liblog4cplus-1.2.so.5:_ZN9log4cplus7helpers7toLowerEc
liblog4cplus-1.2.so.5:_ZN9log4cplus7helpers7toUpperERKNSt7__cxx1112basic_stringIcSt11char_traitsIcESaIcEEE
liblog4cplus-1.2.so.5:_ZN9log4cplus7helpers7toUpperEc
liblog4cplus-1.2.so.5:_ZN9log4cplus7helpers8LockFileC1ERKNSt7__cxx1112basic_stringIcSt11char_traitsIcESaIcEEEb
liblog4cplus-1.2.so.5:_ZN9log4cplus7helpers8LockFileC2ERKNSt7__cxx1112basic_stringIcSt11char_traitsIcESaIcEEEb
liblog4cplus-1.2.so.5:_ZN9log4cplus7helpers8LockFileD1Ev
liblog4cplus-1.2.so.5:_ZN9log4cplus7helpers8LockFileD2Ev
liblog4cplus-1.2.so.5:_ZN9log4cplus7helpers8tostringB5cxx11EPKw
liblog4cplus-1.2.so.5:_ZN9log4cplus7helpers8tostringERKNSt7__cxx1112basic_stringIwSt11char_traitsIwESaIwEEE
liblog4cplus-1.2.so.5:_ZN9log4cplus7helpers9getLogLogEv
liblog4cplus-1.2.so.5:_ZN9log4cplus7helpers9towstringB5cxx11EPKc
liblog4cplus-1.2.so.5:_ZN9log4cplus7helpers9towstringERKNSt7__cxx1112basic_stringIcSt11char_traitsIcESaIcEEE
liblog4cplus-1.2.so.5:_ZN9log4cplus7helpersdvERKNS0_4TimeEl
liblog4cplus-1.2.so.5:_ZN9log4cplus7helperseqERKNS0_4TimeES3_
liblog4cplus-1.2.so.5:_ZN9log4cplus7helpersgeERKNS0_4TimeES3_
liblog4cplus-1.2.so.5:_ZN9log4cplus7helpersgtERKNS0_4TimeES3_
liblog4cplus-1.2.so.5:_ZN9log4cplus7helpersleERKNS0_4TimeES3_
liblog4cplus-1.2.so.5:_ZN9log4cplus7helpersltERKNS0_4TimeES3_
liblog4cplus-1.2.so.5:_ZN9log4cplus7helpersmiERKNS0_4TimeES3_
liblog4cplus-1.2.so.5:_ZN9log4cplus7helpersmlERKNS0_4TimeEl
liblog4cplus-1.2.so.5:_ZN9log4cplus7helpersneERKNS0_4TimeES3_
liblog4cplus-1.2.so.5:_ZN9log4cplus7helpersplERKNS0_4TimeES3_
liblog4cplus-1.2.so.5:_ZN9log4cplus8Appender14destructorImplEv
liblog4cplus-1.2.so.5:_ZN9log4cplus8Appender15getErrorHandlerEv
liblog4cplus-1.2.so.5:_ZN9log4cplus8Appender15setErrorHandlerESt8auto_ptrINS_12ErrorHandlerEE
liblog4cplus-1.2.so.5:_ZN9log4cplus8Appender7getNameB5cxx11Ev
liblog4cplus-1.2.so.5:_ZN9log4cplus8Appender7setNameERKNSt7__cxx1112basic_stringIcSt11char_traitsIcESaIcEEE
liblog4cplus-1.2.so.5:_ZN9log4cplus8Appender8doAppendERKNS_3spi20InternalLoggingEventE
liblog4cplus-1.2.so.5:_ZN9log4cplus8Appender9getLayoutEv
liblog4cplus-1.2.so.5:_ZN9log4cplus8Appender9setLayoutESt8auto_ptrINS_6LayoutEE
liblog4cplus-1.2.so.5:_ZN9log4cplus8AppenderC1ERKNS_7helpers10PropertiesE
liblog4cplus-1.2.so.5:_ZN9log4cplus8AppenderC1Ev
liblog4cplus-1.2.so.5:_ZN9log4cplus8AppenderC2ERKNS_7helpers10PropertiesE
liblog4cplus-1.2.so.5:_ZN9log4cplus8AppenderC2Ev
liblog4cplus-1.2.so.5:_ZN9log4cplus8AppenderD0Ev
liblog4cplus-1.2.so.5:_ZN9log4cplus8AppenderD1Ev
liblog4cplus-1.2.so.5:_ZN9log4cplus8AppenderD2Ev
liblog4cplus-1.2.so.5:_ZN9log4cplus9Hierarchy10disableAllEv
liblog4cplus-1.2.so.5:_ZN9log4cplus9Hierarchy10isDisabledEi
liblog4cplus-1.2.so.5:_ZN9log4cplus9Hierarchy11disableInfoEv
liblog4cplus-1.2.so.5:_ZN9log4cplus9Hierarchy11getInstanceERKNSt7__cxx1112basic_stringIcSt11char_traitsIcESaIcEEE
liblog4cplus-1.2.so.5:_ZN9log4cplus9Hierarchy11getInstanceERKNSt7__cxx1112basic_stringIcSt11char_traitsIcESaIcEEERNS_3spi13LoggerFactoryE
liblog4cplus-1.2.so.5:_ZN9log4cplus9Hierarchy12disableDebugEv
liblog4cplus-1.2.so.5:_ZN9log4cplus9Hierarchy16getLoggerFactoryEv
liblog4cplus-1.2.so.5:_ZN9log4cplus9Hierarchy16setLoggerFactoryESt8auto_ptrINS_3spi13LoggerFactoryEE
liblog4cplus-1.2.so.5:_ZN9log4cplus9Hierarchy17getCurrentLoggersEv
liblog4cplus-1.2.so.5:_ZN9log4cplus9Hierarchy18resetConfigurationEv
liblog4cplus-1.2.so.5:_ZN9log4cplus9Hierarchy5clearEv
liblog4cplus-1.2.so.5:_ZN9log4cplus9Hierarchy6existsERKNSt7__cxx1112basic_stringIcSt11char_traitsIcESaIcEEE
liblog4cplus-1.2.so.5:_ZN9log4cplus9Hierarchy7disableERKNSt7__cxx1112basic_stringIcSt11char_traitsIcESaIcEEE
liblog4cplus-1.2.so.5:_ZN9log4cplus9Hierarchy7disableEi
liblog4cplus-1.2.so.5:_ZN9log4cplus9Hierarchy8shutdownEv
liblog4cplus-1.2.so.5:_ZN9log4cplus9Hierarchy9enableAllEv
liblog4cplus-1.2.so.5:_ZN9log4cplus9HierarchyC1Ev
liblog4cplus-1.2.so.5:_ZN9log4cplus9HierarchyC2Ev
liblog4cplus-1.2.so.5:_ZN9log4cplus9HierarchyD0Ev
liblog4cplus-1.2.so.5:_ZN9log4cplus9HierarchyD1Ev
liblog4cplus-1.2.so.5:_ZN9log4cplus9HierarchyD2Ev
liblog4cplus-1.2.so.5:_ZNK9log4cplus10TTCCLayout17getThreadPrintingEv
liblog4cplus-1.2.so.5:_ZNK9log4cplus10TTCCLayout18getContextPrintingEv
liblog4cplus-1.2.so.5:_ZNK9log4cplus10TTCCLayout20getCategoryPrefixingEv
liblog4cplus-1.2.so.5:_ZNK9log4cplus14SocketAppender17ctcGetAccessMutexEv
liblog4cplus-1.2.so.5:_ZNK9log4cplus14SysLogAppender14getSysLogLevelERKi
liblog4cplus-1.2.so.5:_ZNK9log4cplus14SysLogAppender17ctcGetAccessMutexEv
liblog4cplus-1.2.so.5:_ZNK9log4cplus15LogLevelManager10fromStringERKNSt7__cxx1112basic_stringIcSt11char_traitsIcESaIcEEE
liblog4cplus-1.2.so.5:_ZNK9log4cplus15LogLevelManager8toStringB5cxx11Ei
liblog4cplus-1.2.so.5:_ZNK9log4cplus16FileAppenderBase6getlocEv
liblog4cplus-1.2.so.5:_ZNK9log4cplus20PropertyConfigurator13getPropertiesEv
liblog4cplus-1.2.so.5:_ZNK9log4cplus20PropertyConfigurator19getPropertyFilenameB5cxx11Ev
liblog4cplus-1.2.so.5:_ZNK9log4cplus24DailyRollingFileAppender11getFilenameB5cxx11ERKNS_7helpers4TimeE
liblog4cplus-1.2.so.5:_ZNK9log4cplus24DailyRollingFileAppender25calculateNextRolloverTimeERKNS_7helpers4TimeE
liblog4cplus-1.2.so.5:_ZNK9log4cplus28TimeBasedRollingFileAppender25calculateNextRolloverTimeERKNS_7helpers4TimeE
liblog4cplus-1.2.so.5:_ZNK9log4cplus28TimeBasedRollingFileAppender25getRolloverPeriodDurationEv
liblog4cplus-1.2.so.5:_ZNK9log4cplus3MDC10getContextB5cxx11Ev
liblog4cplus-1.2.so.5:_ZNK9log4cplus3MDC3getEPNSt7__cxx1112basic_stringIcSt11char_traitsIcESaIcEEERKS6_
liblog4cplus-1.2.so.5:_ZNK9log4cplus3NDC10cloneStackEv
liblog4cplus-1.2.so.5:_ZNK9log4cplus3NDC3getB5cxx11Ev
liblog4cplus-1.2.so.5:_ZNK9log4cplus3NDC4peekB5cxx11Ev
liblog4cplus-1.2.so.5:_ZNK9log4cplus3NDC8getDepthEv
liblog4cplus-1.2.so.5:_ZNK9log4cplus3spi10LoggerImpl12getHierarchyEv
liblog4cplus-1.2.so.5:_ZNK9log4cplus3spi10LoggerImpl12isEnabledForEi
liblog4cplus-1.2.so.5:_ZNK9log4cplus3spi10LoggerImpl13getAdditivityEv
liblog4cplus-1.2.so.5:_ZNK9log4cplus3spi10LoggerImpl18getChainedLogLevelEv
liblog4cplus-1.2.so.5:_ZNK9log4cplus3spi10RootLogger18getChainedLogLevelEv
liblog4cplus-1.2.so.5:_ZNK9log4cplus3spi13DenyAllFilter6decideERKNS0_20InternalLoggingEventE
liblog4cplus-1.2.so.5:_ZNK9log4cplus3spi17StringMatchFilter6decideERKNS0_20InternalLoggingEventE
liblog4cplus-1.2.so.5:_ZNK9log4cplus3spi18ObjectRegistryBase11getAllNamesB5cxx11Ev
liblog4cplus-1.2.so.5:_ZNK9log4cplus3spi18ObjectRegistryBase6existsERKNSt7__cxx1112basic_stringIcSt11char_traitsIcESaIcEEE
liblog4cplus-1.2.so.5:_ZNK9log4cplus3spi18ObjectRegistryBase6getValERKNSt7__cxx1112basic_stringIcSt11char_traitsIcESaIcEEE
liblog4cplus-1.2.so.5:_ZNK9log4cplus3spi19LogLevelMatchFilter6decideERKNS0_20InternalLoggingEventE
liblog4cplus-1.2.so.5:_ZNK9log4cplus3spi19LogLevelRangeFilter6decideERKNS0_20InternalLoggingEventE
liblog4cplus-1.2.so.5:_ZNK9log4cplus3spi20InternalLoggingEvent10getMessageB5cxx11Ev
liblog4cplus-1.2.so.5:_ZNK9log4cplus3spi20InternalLoggingEvent24gatherThreadSpecificDataEv
liblog4cplus-1.2.so.5:_ZNK9log4cplus3spi20InternalLoggingEvent5cloneEv
liblog4cplus-1.2.so.5:_ZNK9log4cplus3spi20InternalLoggingEvent6getMDCERKNSt7__cxx1112basic_stringIcSt11char_traitsIcESaIcEEE
liblog4cplus-1.2.so.5:_ZNK9log4cplus3spi20InternalLoggingEvent7getTypeEv
liblog4cplus-1.2.so.5:_ZNK9log4cplus6Logger11getLogLevelEv
liblog4cplus-1.2.so.5:_ZNK9log4cplus6Logger12getHierarchyEv
liblog4cplus-1.2.so.5:_ZNK9log4cplus6Logger12isEnabledForEi
liblog4cplus-1.2.so.5:_ZNK9log4cplus6Logger13callAppendersERKNS_3spi20InternalLoggingEventE
liblog4cplus-1.2.so.5:_ZNK9log4cplus6Logger13getAdditivityEv
liblog4cplus-1.2.so.5:_ZNK9log4cplus6Logger18getChainedLogLevelEv
liblog4cplus-1.2.so.5:_ZNK9log4cplus6Logger20closeNestedAppendersEv
liblog4cplus-1.2.so.5:_ZNK9log4cplus6Logger3logERKNS_3spi20InternalLoggingEventE
liblog4cplus-1.2.so.5:_ZNK9log4cplus6Logger3logEiRKNSt7__cxx1112basic_stringIcSt11char_traitsIcESaIcEEEPKciSA_
liblog4cplus-1.2.so.5:_ZNK9log4cplus6Logger7getNameB5cxx11Ev
liblog4cplus-1.2.so.5:_ZNK9log4cplus6Logger9assertionEbRKNSt7__cxx1112basic_stringIcSt11char_traitsIcESaIcEEE
liblog4cplus-1.2.so.5:_ZNK9log4cplus6Logger9forcedLogERKNS_3spi20InternalLoggingEventE
liblog4cplus-1.2.so.5:_ZNK9log4cplus6Logger9forcedLogEiRKNSt7__cxx1112basic_stringIcSt11char_traitsIcESaIcEEEPKciSA_
liblog4cplus-1.2.so.5:_ZNK9log4cplus6Logger9getParentEv
liblog4cplus-1.2.so.5:_ZNK9log4cplus6thread11SharedMutex6rdlockEv
liblog4cplus-1.2.so.5:_ZNK9log4cplus6thread11SharedMutex6wrlockEv
liblog4cplus-1.2.so.5:_ZNK9log4cplus6thread11SharedMutex8rdunlockEv
liblog4cplus-1.2.so.5:_ZNK9log4cplus6thread11SharedMutex8wrunlockEv
liblog4cplus-1.2.so.5:_ZNK9log4cplus6thread14AbstractThread4joinEv
liblog4cplus-1.2.so.5:_ZNK9log4cplus6thread14AbstractThread9isRunningEv
liblog4cplus-1.2.so.5:_ZNK9log4cplus6thread16ManualResetEvent10timed_waitEm
liblog4cplus-1.2.so.5:_ZNK9log4cplus6thread16ManualResetEvent4waitEv
liblog4cplus-1.2.so.5:_ZNK9log4cplus6thread16ManualResetEvent5resetEv
liblog4cplus-1.2.so.5:_ZNK9log4cplus6thread16ManualResetEvent6signalEv
liblog4cplus-1.2.so.5:_ZNK9log4cplus6thread5Mutex4lockEv
liblog4cplus-1.2.so.5:_ZNK9log4cplus6thread5Mutex6unlockEv
liblog4cplus-1.2.so.5:_ZNK9log4cplus6thread9FairMutex4lockEv
liblog4cplus-1.2.so.5:_ZNK9log4cplus6thread9FairMutex6unlockEv
liblog4cplus-1.2.so.5:_ZNK9log4cplus6thread9Semaphore4lockEv
liblog4cplus-1.2.so.5:_ZNK9log4cplus6thread9Semaphore6unlockEv
liblog4cplus-1.2.so.5:_ZNK9log4cplus7helpers10LogLogUser9getLogLogEv
liblog4cplus-1.2.so.5:_ZNK9log4cplus7helpers10Properties11getPropertyB5cxx11EPKc
liblog4cplus-1.2.so.5:_ZNK9log4cplus7helpers10Properties11getPropertyERKNSt7__cxx1112basic_stringIcSt11char_traitsIcESaIcEEE
liblog4cplus-1.2.so.5:_ZNK9log4cplus7helpers10Properties11getPropertyERKNSt7__cxx1112basic_stringIcSt11char_traitsIcESaIcEEES9_
liblog4cplus-1.2.so.5:_ZNK9log4cplus7helpers10Properties13propertyNamesB5cxx11Ev
liblog4cplus-1.2.so.5:_ZNK9log4cplus7helpers10Properties17getPropertySubsetERKNSt7__cxx1112basic_stringIcSt11char_traitsIcESaIcEEE
liblog4cplus-1.2.so.5:_ZNK9log4cplus7helpers10Properties6existsEPKc
liblog4cplus-1.2.so.5:_ZNK9log4cplus7helpers10Properties6existsERKNSt7__cxx1112basic_stringIcSt11char_traitsIcESaIcEEE
liblog4cplus-1.2.so.5:_ZNK9log4cplus7helpers10Properties6getIntERiRKNSt7__cxx1112basic_stringIcSt11char_traitsIcESaIcEEE
liblog4cplus-1.2.so.5:_ZNK9log4cplus7helpers10Properties7getBoolERbRKNSt7__cxx1112basic_stringIcSt11char_traitsIcESaIcEEE
liblog4cplus-1.2.so.5:_ZNK9log4cplus7helpers10Properties7getLongERlRKNSt7__cxx1112basic_stringIcSt11char_traitsIcESaIcEEE
liblog4cplus-1.2.so.5:_ZNK9log4cplus7helpers10Properties7getUIntERjRKNSt7__cxx1112basic_stringIcSt11char_traitsIcESaIcEEE
liblog4cplus-1.2.so.5:_ZNK9log4cplus7helpers10Properties8getULongERmRKNSt7__cxx1112basic_stringIcSt11char_traitsIcESaIcEEE
liblog4cplus-1.2.so.5:_ZNK9log4cplus7helpers10Properties9getStringERNSt7__cxx1112basic_stringIcSt11char_traitsIcESaIcEEERKS7_
liblog4cplus-1.2.so.5:_ZNK9log4cplus7helpers12SharedObject12addReferenceEv
liblog4cplus-1.2.so.5:_ZNK9log4cplus7helpers12SharedObject15removeReferenceEv
liblog4cplus-1.2.so.5:_ZNK9log4cplus7helpers14AbstractSocket6isOpenEv
liblog4cplus-1.2.so.5:_ZNK9log4cplus7helpers22AppenderAttachableImpl21appendLoopOnAppendersERKNS_3spi20InternalLoggingEventE
liblog4cplus-1.2.so.5:_ZNK9log4cplus7helpers4Time16getFormattedTimeERKNSt7__cxx1112basic_stringIcSt11char_traitsIcESaIcEEEb
liblog4cplus-1.2.so.5:_ZNK9log4cplus7helpers4Time6gmtimeEP2tm
liblog4cplus-1.2.so.5:_ZNK9log4cplus7helpers4Time7getTimeEv
liblog4cplus-1.2.so.5:_ZNK9log4cplus7helpers4Time9localtimeEP2tm
liblog4cplus-1.2.so.5:_ZNK9log4cplus7helpers6LogLog4warnEPKc
liblog4cplus-1.2.so.5:_ZNK9log4cplus7helpers6LogLog4warnERKNSt7__cxx1112basic_stringIcSt11char_traitsIcESaIcEEE
liblog4cplus-1.2.so.5:_ZNK9log4cplus7helpers6LogLog5debugEPKc
liblog4cplus-1.2.so.5:_ZNK9log4cplus7helpers6LogLog5debugERKNSt7__cxx1112basic_stringIcSt11char_traitsIcESaIcEEE
liblog4cplus-1.2.so.5:_ZNK9log4cplus7helpers6LogLog5errorEPKcb
liblog4cplus-1.2.so.5:_ZNK9log4cplus7helpers6LogLog5errorERKNSt7__cxx1112basic_stringIcSt11char_traitsIcESaIcEEEb
liblog4cplus-1.2.so.5:_ZNK9log4cplus7helpers8LockFile4lockEv
liblog4cplus-1.2.so.5:_ZNK9log4cplus7helpers8LockFile4openEi
liblog4cplus-1.2.so.5:_ZNK9log4cplus7helpers8LockFile5closeEv
liblog4cplus-1.2.so.5:_ZNK9log4cplus7helpers8LockFile6unlockEv
liblog4cplus-1.2.so.5:_ZNK9log4cplus8Appender11formatEventB5cxx11ERKNS_3spi20InternalLoggingEventE
liblog4cplus-1.2.so.5:_ZNK9log4cplus8Appender8isClosedEv
liblog4cplus-1.2.so.5:_ZNK9log4cplus9Hierarchy7getRootEv
liblog4cplus-1.2.so.5:_ZThn88_N9log4cplus13AsyncAppenderD0Ev
liblog4cplus-1.2.so.5:_ZThn88_N9log4cplus13AsyncAppenderD1Ev
liblog4cplus-1.2.so.5:_ZTv0_n24_N9log4cplus12FileAppenderD0Ev
liblog4cplus-1.2.so.5:_ZTv0_n24_N9log4cplus12FileAppenderD1Ev
liblog4cplus-1.2.so.5:_ZTv0_n24_N9log4cplus12NullAppenderD0Ev
liblog4cplus-1.2.so.5:_ZTv0_n24_N9log4cplus12NullAppenderD1Ev
liblog4cplus-1.2.so.5:_ZTv0_n24_N9log4cplus13AsyncAppenderD0Ev
liblog4cplus-1.2.so.5:_ZTv0_n24_N9log4cplus13AsyncAppenderD1Ev
liblog4cplus-1.2.so.5:_ZTv0_n24_N9log4cplus14SocketAppenderD0Ev
liblog4cplus-1.2.so.5:_ZTv0_n24_N9log4cplus14SocketAppenderD1Ev
liblog4cplus-1.2.so.5:_ZTv0_n24_N9log4cplus14SysLogAppenderD0Ev
liblog4cplus-1.2.so.5:_ZTv0_n24_N9log4cplus14SysLogAppenderD1Ev
liblog4cplus-1.2.so.5:_ZTv0_n24_N9log4cplus15ConsoleAppenderD0Ev
liblog4cplus-1.2.so.5:_ZTv0_n24_N9log4cplus15ConsoleAppenderD1Ev
liblog4cplus-1.2.so.5:_ZTv0_n24_N9log4cplus16Log4jUdpAppenderD0Ev
liblog4cplus-1.2.so.5:_ZTv0_n24_N9log4cplus16Log4jUdpAppenderD1Ev
liblog4cplus-1.2.so.5:_ZTv0_n24_N9log4cplus19RollingFileAppenderD0Ev
liblog4cplus-1.2.so.5:_ZTv0_n24_N9log4cplus19RollingFileAppenderD1Ev
liblog4cplus-1.2.so.5:_ZTv0_n24_N9log4cplus24DailyRollingFileAppenderD0Ev
liblog4cplus-1.2.so.5:_ZTv0_n24_N9log4cplus24DailyRollingFileAppenderD1Ev
liblog4cplus-1.2.so.5:_ZTv0_n24_N9log4cplus28TimeBasedRollingFileAppenderD0Ev
liblog4cplus-1.2.so.5:_ZTv0_n24_N9log4cplus28TimeBasedRollingFileAppenderD1Ev
liblog4cplus-1.2.so.5:_ZTv0_n24_N9log4cplus3spi10LoggerImplD0Ev
liblog4cplus-1.2.so.5:_ZTv0_n24_N9log4cplus3spi10LoggerImplD1Ev
liblog4cplus-1.2.so.5:_ZTv0_n24_N9log4cplus3spi6FilterD0Ev
liblog4cplus-1.2.so.5:_ZTv0_n24_N9log4cplus3spi6FilterD1Ev
liblog4cplus-1.2.so.5:_ZTv0_n24_N9log4cplus6thread14AbstractThreadD0Ev
liblog4cplus-1.2.so.5:_ZTv0_n24_N9log4cplus6thread14AbstractThreadD1Ev
liblog4cplus-1.2.so.5:_ZTv0_n24_N9log4cplus6thread5QueueD0Ev
liblog4cplus-1.2.so.5:_ZTv0_n24_N9log4cplus6thread5QueueD1Ev
liblog4cplus-1.2.so.5:_ZTv0_n24_N9log4cplus7helpers15ConnectorThreadD0Ev
liblog4cplus-1.2.so.5:_ZTv0_n24_N9log4cplus7helpers15ConnectorThreadD1Ev
liblog4cplus-1.2.so.5:_ZTv0_n24_N9log4cplus8AppenderD0Ev
liblog4cplus-1.2.so.5:_ZTv0_n24_N9log4cplus8AppenderD1Ev
liblog4cplus-1.2.so.5:_ZTv0_n32_NK9log4cplus14SocketAppender17ctcGetAccessMutexEv
liblog4cplus-1.2.so.5:_ZTv0_n32_NK9log4cplus14SysLogAppender17ctcGetAccessMutexEv
liblog4cplus-1.2.so.5:_ZTv0_n40_N9log4cplus14SocketAppender12ctcGetSocketEv
liblog4cplus-1.2.so.5:_ZTv0_n40_N9log4cplus14SysLogAppender12ctcGetSocketEv
liblog4cplus-1.2.so.5:_ZTv0_n48_N9log4cplus14SocketAppender10ctcConnectEv
liblog4cplus-1.2.so.5:_ZTv0_n48_N9log4cplus14SysLogAppender10ctcConnectEv
liblog4cplus-1.2.so.5:_ZTv0_n56_N9log4cplus14SocketAppender15ctcSetConnectedEv
liblog4cplus-1.2.so.5:_ZTv0_n56_N9log4cplus14SysLogAppender15ctcSetConnectedEv
liblog4cplus-1.2.so.5:log4cplus_basic_configure
liblog4cplus-1.2.so.5:log4cplus_file_configure
liblog4cplus-1.2.so.5:log4cplus_logger_exists
liblog4cplus-1.2.so.5:log4cplus_logger_force_log
liblog4cplus-1.2.so.5:log4cplus_logger_is_enabled_for
liblog4cplus-1.2.so.5:log4cplus_logger_log
liblog4cplus-1.2.so.5:log4cplus_shutdown
liblog4cplus-1.2.so.5:log4cplus_str_configure
